target datalayout = "e-m:e-p270:32:32-p271:32:32-p272:64:64-i64:64-i128:128-f80:128-n8:16:32:64-S128"
target triple = "x86_64-pc-linux-gnu"

%"struct.std::_Rb_tree_header" = type { %"struct.std::_Rb_tree_node_base", i64 }
%"struct.std::_Rb_tree_node_base" = type { i32, ptr, ptr, ptr }
%"class.draco::Options" = type { %"class.std::map" }
%"class.std::map" = type { %"class.std::_Rb_tree" }
%"class.std::_Rb_tree" = type { %"struct.std::_Rb_tree<std::__cxx11::basic_string<char>, std::pair<const std::__cxx11::basic_string<char>, std::__cxx11::basic_string<char>>, std::_Select1st<std::pair<const std::__cxx11::basic_string<char>, std::__cxx11::basic_string<char>>>, std::less<std::__cxx11::basic_string<char>>>::_Rb_tree_impl" }
%"struct.std::_Rb_tree<std::__cxx11::basic_string<char>, std::pair<const std::__cxx11::basic_string<char>, std::__cxx11::basic_string<char>>, std::_Select1st<std::pair<const std::__cxx11::basic_string<char>, std::__cxx11::basic_string<char>>>, std::less<std::__cxx11::basic_string<char>>>::_Rb_tree_impl" = type { [8 x i8], %"struct.std::_Rb_tree_header" }
%"class.draco::Status" = type { i32, %"class.std::__cxx11::basic_string" }
%"class.std::__cxx11::basic_string" = type { %"struct.std::__cxx11::basic_string<char>::_Alloc_hider", i64, %union.anon }
%"struct.std::__cxx11::basic_string<char>::_Alloc_hider" = type { ptr }
%union.anon = type { i64, [8 x i8] }
%"class.draco::ExpertEncoder" = type { %"class.draco::EncoderBase.9", ptr, ptr }
%"class.draco::EncoderBase.9" = type { ptr, %"class.draco::EncoderOptionsBase.10", i64, i64 }
%"class.draco::EncoderOptionsBase.10" = type { %"class.draco::DracoOptions.11", %"class.draco::Options" }
%"class.draco::DracoOptions.11" = type { %"class.draco::Options", %"class.std::map.12" }
%"class.std::map.12" = type { %"class.std::_Rb_tree.13" }
%"class.std::_Rb_tree.13" = type { %"struct.std::_Rb_tree<int, std::pair<const int, draco::Options>, std::_Select1st<std::pair<const int, draco::Options>>, std::less<int>>::_Rb_tree_impl" }
%"struct.std::_Rb_tree<int, std::pair<const int, draco::Options>, std::_Select1st<std::pair<const int, draco::Options>>, std::less<int>>::_Rb_tree_impl" = type { [8 x i8], %"struct.std::_Rb_tree_header" }

; Function Attrs: mustprogress uwtable
define void @_ZN5draco7Encoder24EncodePointCloudToBufferERKNS_10PointCloudEPNS_13EncoderBufferE(ptr dead_on_unwind noalias writable sret(%"class.draco::Status") align 8 %0, ptr noundef nonnull align 8 dereferenceable(168) %1, ptr noundef nonnull align 8 dereferenceable(164) %2, ptr noundef %3) unnamed_addr #4 align 2 personality ptr @__gxx_personality_v0 {
  %5 = alloca ptr, align 8
  %6 = alloca ptr, align 8
  %7 = alloca ptr, align 8
  %8 = alloca ptr, align 8
  %9 = alloca %"class.draco::ExpertEncoder", align 8
  %10 = alloca %"class.draco::EncoderOptionsBase.10", align 8
  %11 = alloca ptr, align 8
  %12 = alloca i32, align 4
  store ptr %0, ptr %5, align 8
  store ptr %1, ptr %6, align 8, !tbaa !3
  store ptr %2, ptr %7, align 8, !tbaa !33
  store ptr %3, ptr %8, align 8, !tbaa !35
  %13 = load ptr, ptr %6, align 8
  call void @llvm.lifetime.start.p0(i64 184, ptr %9) #3
  %14 = load ptr, ptr %7, align 8, !tbaa !33
  call void @_ZN5draco13ExpertEncoderC1ERKNS_10PointCloudE(ptr noundef nonnull align 8 dereferenceable(184) %9, ptr noundef nonnull align 8 dereferenceable(164) %14)
  call void @llvm.lifetime.start.p0(i64 144, ptr %10) #3
  %15 = load ptr, ptr %7, align 8, !tbaa !33
  invoke void @_ZNK5draco7Encoder26CreateExpertEncoderOptionsERKNS_10PointCloudE(ptr dead_on_unwind writable sret(%"class.draco::EncoderOptionsBase.10") align 8 %10, ptr noundef nonnull align 8 dereferenceable(168) %13, ptr noundef nonnull align 8 dereferenceable(164) %15)
          to label %16 unwind label %20

16:                                               ; preds = %4
  invoke void @_ZN5draco13ExpertEncoder5ResetERKNS_18EncoderOptionsBaseIiEE(ptr noundef nonnull align 8 dereferenceable(184) %9, ptr noundef nonnull align 8 dereferenceable(144) %10)
          to label %17 unwind label %24

17:                                               ; preds = %16
  call void @_ZN5draco18EncoderOptionsBaseIiED2Ev(ptr noundef nonnull align 8 dereferenceable(144) %10) #3
  call void @llvm.lifetime.end.p0(i64 144, ptr %10) #3
  %18 = load ptr, ptr %8, align 8, !tbaa !35
  invoke void @_ZN5draco13ExpertEncoder14EncodeToBufferEPNS_13EncoderBufferE(ptr dead_on_unwind writable sret(%"class.draco::Status") align 8 %0, ptr noundef nonnull align 8 dereferenceable(184) %9, ptr noundef %18)
          to label %19 unwind label %29

19:                                               ; preds = %17
  call void @_ZN5draco11EncoderBaseINS_18EncoderOptionsBaseIiEEED2Ev(ptr noundef nonnull align 8 dereferenceable(184) %9) #3
  call void @llvm.lifetime.end.p0(i64 184, ptr %9) #3
  ret void

20:                                               ; preds = %4
  %21 = landingpad { ptr, i32 }
          cleanup
  %22 = extractvalue { ptr, i32 } %21, 0
  store ptr %22, ptr %11, align 8
  %23 = extractvalue { ptr, i32 } %21, 1
  store i32 %23, ptr %12, align 4
  br label %28

24:                                               ; preds = %16
  %25 = landingpad { ptr, i32 }
          cleanup
  %26 = extractvalue { ptr, i32 } %25, 0
  store ptr %26, ptr %11, align 8
  %27 = extractvalue { ptr, i32 } %25, 1
  store i32 %27, ptr %12, align 4
  call void @_ZN5draco18EncoderOptionsBaseIiED2Ev(ptr noundef nonnull align 8 dereferenceable(144) %10) #3
  br label %28

28:                                               ; preds = %24, %20
  call void @llvm.lifetime.end.p0(i64 144, ptr %10) #3
  br label %33

29:                                               ; preds = %17
  %30 = landingpad { ptr, i32 }
          cleanup
  %31 = extractvalue { ptr, i32 } %30, 0
  store ptr %31, ptr %11, align 8
  %32 = extractvalue { ptr, i32 } %30, 1
  store i32 %32, ptr %12, align 4
  br label %33

33:                                               ; preds = %29, %28
  call void @_ZN5draco11EncoderBaseINS_18EncoderOptionsBaseIiEEED2Ev(ptr noundef nonnull align 8 dereferenceable(184) %9) #3
  call void @llvm.lifetime.end.p0(i64 184, ptr %9) #3
  br label %34

34:                                               ; preds = %33
  %35 = load ptr, ptr %11, align 8
  %36 = load i32, ptr %12, align 4
  %37 = insertvalue { ptr, i32 } poison, ptr %35, 0
  %38 = insertvalue { ptr, i32 } %37, i32 %36, 1
  resume { ptr, i32 } %38
}