; Function Attrs: mustprogress uwtable
define void @_ZN5draco7Encoder24EncodePointCloudToBufferERKNS_10PointCloudEPNS_13EncoderBufferE(ptr dead_on_unwind noalias writable sret(%"class.draco::Status") align 8 %0, ptr noundef nonnull align 8 dereferenceable(168) %1, ptr noundef nonnull align 8 dereferenceable(164) %2, ptr noundef %3) unnamed_addr #3 align 2 personality ptr @__gxx_personality_v0 {
  %5 = alloca %"class.draco::ExpertEncoder", align 8
  %6 = alloca %"class.draco::EncoderOptionsBase.10", align 8
  call void @llvm.lifetime.start.p0(i64 184, ptr nonnull %5) #22
  call void @_ZN5draco13ExpertEncoderC1ERKNS_10PointCloudE(ptr noundef nonnull align 8 dereferenceable(184) %5, ptr noundef nonnull align 8 dereferenceable(164) %2)
  call void @llvm.lifetime.start.p0(i64 144, ptr nonnull %6) #22
  invoke void @_ZNK5draco7Encoder26CreateExpertEncoderOptionsERKNS_10PointCloudE(ptr dead_on_unwind nonnull writable sret(%"class.draco::EncoderOptionsBase.10") align 8 %6, ptr noundef nonnull align 8 dereferenceable(168) %1, ptr noundef nonnull align 8 dereferenceable(164) %2)
          to label %7 unwind label %45

7:                                                ; preds = %4
  invoke void @_ZN5draco13ExpertEncoder5ResetERKNS_18EncoderOptionsBaseIiEE(ptr noundef nonnull align 8 dereferenceable(184) %5, ptr noundef nonnull align 8 dereferenceable(144) %6)
          to label %8 unwind label %47

8:                                                ; preds = %7
  %9 = getelementptr inbounds nuw i8, ptr %6, i64 96
  %10 = getelementptr inbounds nuw i8, ptr %6, i64 112
  %11 = load ptr, ptr %10, align 8, !tbaa !6
  invoke void @_ZNSt8_Rb_treeINSt7__cxx1112basic_stringIcSt11char_traitsIcESaIcEEESt4pairIKS5_S5_ESt10_Select1stIS8_ESt4lessIS5_ESaIS8_EE8_M_eraseEPSt13_Rb_tree_nodeIS8_E(ptr noundef nonnull align 8 dereferenceable(48) %9, ptr noundef %11)
          to label %_ZN5draco7OptionsD2Ev.exit.i unwind label %12

12:                                               ; preds = %8
  %13 = landingpad { ptr, i32 }
          catch ptr null
  %14 = extractvalue { ptr, i32 } %13, 0
  call void @__clang_call_terminate(ptr %14) #23
  unreachable

_ZN5draco7OptionsD2Ev.exit.i:                     ; preds = %8
  %15 = getelementptr inbounds nuw i8, ptr %6, i64 48
  %16 = getelementptr inbounds nuw i8, ptr %6, i64 64
  %17 = load ptr, ptr %16, align 8, !tbaa !6
  invoke void @_ZNSt8_Rb_treeIiSt4pairIKiN5draco7OptionsEESt10_Select1stIS4_ESt4lessIiESaIS4_EE8_M_eraseEPSt13_Rb_tree_nodeIS4_E(ptr noundef nonnull align 8 dereferenceable(48) %15, ptr noundef %17)
          to label %_ZNSt3mapIiN5draco7OptionsESt4lessIiESaISt4pairIKiS1_EEED2Ev.exit.i.i unwind label %18

18:                                               ; preds = %_ZN5draco7OptionsD2Ev.exit.i
  %19 = landingpad { ptr, i32 }
          catch ptr null
  %20 = extractvalue { ptr, i32 } %19, 0
  call void @__clang_call_terminate(ptr %20) #23
  unreachable

_ZNSt3mapIiN5draco7OptionsESt4lessIiESaISt4pairIKiS1_EEED2Ev.exit.i.i: ; preds = %_ZN5draco7OptionsD2Ev.exit.i
  %21 = getelementptr inbounds nuw i8, ptr %6, i64 16
  %22 = load ptr, ptr %21, align 8, !tbaa !6
  invoke void @_ZNSt8_Rb_treeINSt7__cxx1112basic_stringIcSt11char_traitsIcESaIcEEESt4pairIKS5_S5_ESt10_Select1stIS8_ESt4lessIS5_ESaIS8_EE8_M_eraseEPSt13_Rb_tree_nodeIS8_E(ptr noundef nonnull align 8 dereferenceable(144) %6, ptr noundef %22)
          to label %_ZN5draco18EncoderOptionsBaseIiED2Ev.exit unwind label %23

23:                                               ; preds = %_ZNSt3mapIiN5draco7OptionsESt4lessIiESaISt4pairIKiS1_EEED2Ev.exit.i.i
  %24 = landingpad { ptr, i32 }
          catch ptr null
  %25 = extractvalue { ptr, i32 } %24, 0
  call void @__clang_call_terminate(ptr %25) #23
  unreachable

_ZN5draco18EncoderOptionsBaseIiED2Ev.exit:        ; preds = %_ZNSt3mapIiN5draco7OptionsESt4lessIiESaISt4pairIKiS1_EEED2Ev.exit.i.i
  call void @llvm.lifetime.end.p0(i64 144, ptr nonnull %6) #22
  invoke void @_ZN5draco13ExpertEncoder14EncodeToBufferEPNS_13EncoderBufferE(ptr dead_on_unwind writable sret(%"class.draco::Status") align 8 %0, ptr noundef nonnull align 8 dereferenceable(184) %5, ptr noundef %3)
          to label %26 unwind label %50

26:                                               ; preds = %_ZN5draco18EncoderOptionsBaseIiED2Ev.exit
  store ptr getelementptr inbounds nuw inrange(-16, 16) (i8, ptr @_ZTVN5draco11EncoderBaseINS_18EncoderOptionsBaseIiEEEE, i64 16), ptr %5, align 8, !tbaa !3
  %27 = getelementptr inbounds nuw i8, ptr %5, i64 8
  %28 = getelementptr inbounds nuw i8, ptr %5, i64 104
  %29 = getelementptr inbounds nuw i8, ptr %5, i64 120
  %30 = load ptr, ptr %29, align 8, !tbaa !6
  invoke void @_ZNSt8_Rb_treeINSt7__cxx1112basic_stringIcSt11char_traitsIcESaIcEEESt4pairIKS5_S5_ESt10_Select1stIS8_ESt4lessIS5_ESaIS8_EE8_M_eraseEPSt13_Rb_tree_nodeIS8_E(ptr noundef nonnull align 8 dereferenceable(48) %28, ptr noundef %30)
          to label %_ZN5draco7OptionsD2Ev.exit.i.i unwind label %31

31:                                               ; preds = %26
  %32 = landingpad { ptr, i32 }
          catch ptr null
  %33 = extractvalue { ptr, i32 } %32, 0
  call void @__clang_call_terminate(ptr %33) #23
  unreachable

_ZN5draco7OptionsD2Ev.exit.i.i:                   ; preds = %26
  %34 = getelementptr inbounds nuw i8, ptr %5, i64 56
  %35 = getelementptr inbounds nuw i8, ptr %5, i64 72
  %36 = load ptr, ptr %35, align 8, !tbaa !6
  invoke void @_ZNSt8_Rb_treeIiSt4pairIKiN5draco7OptionsEESt10_Select1stIS4_ESt4lessIiESaIS4_EE8_M_eraseEPSt13_Rb_tree_nodeIS4_E(ptr noundef nonnull align 8 dereferenceable(48) %34, ptr noundef %36)
          to label %_ZNSt3mapIiN5draco7OptionsESt4lessIiESaISt4pairIKiS1_EEED2Ev.exit.i.i.i unwind label %37

37:                                               ; preds = %_ZN5draco7OptionsD2Ev.exit.i.i
  %38 = landingpad { ptr, i32 }
          catch ptr null
  %39 = extractvalue { ptr, i32 } %38, 0
  call void @__clang_call_terminate(ptr %39) #23
  unreachable

_ZNSt3mapIiN5draco7OptionsESt4lessIiESaISt4pairIKiS1_EEED2Ev.exit.i.i.i: ; preds = %_ZN5draco7OptionsD2Ev.exit.i.i
  %40 = getelementptr inbounds nuw i8, ptr %5, i64 24
  %41 = load ptr, ptr %40, align 8, !tbaa !6
  invoke void @_ZNSt8_Rb_treeINSt7__cxx1112basic_stringIcSt11char_traitsIcESaIcEEESt4pairIKS5_S5_ESt10_Select1stIS8_ESt4lessIS5_ESaIS8_EE8_M_eraseEPSt13_Rb_tree_nodeIS8_E(ptr noundef nonnull align 8 dereferenceable(144) %27, ptr noundef %41)
          to label %_ZN5draco11EncoderBaseINS_18EncoderOptionsBaseIiEEED2Ev.exit unwind label %42

42:                                               ; preds = %_ZNSt3mapIiN5draco7OptionsESt4lessIiESaISt4pairIKiS1_EEED2Ev.exit.i.i.i
  %43 = landingpad { ptr, i32 }
          catch ptr null
  %44 = extractvalue { ptr, i32 } %43, 0
  call void @__clang_call_terminate(ptr %44) #23
  unreachable

_ZN5draco11EncoderBaseINS_18EncoderOptionsBaseIiEEED2Ev.exit: ; preds = %_ZNSt3mapIiN5draco7OptionsESt4lessIiESaISt4pairIKiS1_EEED2Ev.exit.i.i.i
  call void @llvm.lifetime.end.p0(i64 184, ptr nonnull %5) #22
  ret void

45:                                               ; preds = %4
  %46 = landingpad { ptr, i32 }
          cleanup
  br label %49

47:                                               ; preds = %7
  %48 = landingpad { ptr, i32 }
          cleanup
  call void @_ZN5draco18EncoderOptionsBaseIiED2Ev(ptr noundef nonnull align 8 dereferenceable(144) %6) #22
  br label %49

49:                                               ; preds = %47, %45
  %.pn = phi { ptr, i32 } [ %48, %47 ], [ %46, %45 ]
  call void @llvm.lifetime.end.p0(i64 144, ptr nonnull %6) #22
  br label %52

50:                                               ; preds = %_ZN5draco18EncoderOptionsBaseIiED2Ev.exit
  %51 = landingpad { ptr, i32 }
          cleanup
  br label %52

52:                                               ; preds = %50, %49
  %.pn8 = phi { ptr, i32 } [ %51, %50 ], [ %.pn, %49 ]
  call void @_ZN5draco11EncoderBaseINS_18EncoderOptionsBaseIiEEED2Ev(ptr noundef nonnull align 8 dereferenceable(184) %5) #22
  call void @llvm.lifetime.end.p0(i64 184, ptr nonnull %5) #22
  resume { ptr, i32 } %.pn8
}